target datalayout = "e-m:e-p270:32:32-p271:32:32-p272:64:64-i64:64-i128:128-f80:128-n8:16:32:64-S128"
target triple = "x86_64-pc-linux-gnu"

%class.DataLayout = type { %union.anon, [1 x i64] }
%union.anon = type { i64 }
%class.ProfileData = type { ptr, ptr }

@.str.22 = private unnamed_addr constant [22 x i8] c"count(%u) entries(%u)\00", align 1
@.str.23 = private unnamed_addr constant [11 x i8] c"(%u %4.2f)\00", align 1
@TypeProfileWidth = external global i64, align 8

; Function Attrs: mustprogress nounwind uwtable
define linkonce_odr hidden noundef i64 @_ZNK10DataLayout7cell_atEi(ptr noundef nonnull align 8 dereferenceable(16) %0, i32 noundef %1) #1 comdat align 2 {
  %3 = alloca ptr, align 8
  %4 = alloca i32, align 4
  store ptr %0, ptr %3, align 8
  store i32 %1, ptr %4, align 4
  %5 = load ptr, ptr %3, align 8
  %6 = getelementptr inbounds %class.DataLayout, ptr %5, i32 0, i32 1
  %7 = load i32, ptr %4, align 4
  %8 = sext i32 %7 to i64
  %9 = getelementptr inbounds [1 x i64], ptr %6, i64 0, i64 %8
  %10 = load i64, ptr %9, align 8
  ret i64 %10
}

; Function Attrs: mustprogress nounwind uwtable
define linkonce_odr hidden noundef ptr @_ZNK11ProfileData4dataEv(ptr noundef nonnull align 8 dereferenceable(16) %0) #1 comdat align 2 {
  %2 = alloca ptr, align 8
  store ptr %0, ptr %2, align 8
  %3 = load ptr, ptr %2, align 8
  %4 = getelementptr inbounds %class.ProfileData, ptr %3, i32 0, i32 1
  %5 = load ptr, ptr %4, align 8
  ret ptr %5
}

; Function Attrs: mustprogress nounwind uwtable
define linkonce_odr hidden noundef i32 @_ZNK11ProfileData7uint_atEi(ptr noundef nonnull align 8 dereferenceable(16) %0, i32 noundef %1) #1 comdat align 2 {
  %3 = alloca ptr, align 8
  %4 = alloca i32, align 4
  store ptr %0, ptr %3, align 8
  store i32 %1, ptr %4, align 4
  %5 = load ptr, ptr %3, align 8
  %6 = load i32, ptr %4, align 4
  %7 = call noundef i64 @_ZNK11ProfileData9intptr_atEi(ptr noundef nonnull align 8 dereferenceable(16) %5, i32 noundef %6)
  %8 = trunc i64 %7 to i32
  ret i32 %8
}

; Function Attrs: mustprogress nounwind uwtable
define linkonce_odr hidden noundef i32 @_ZN16ReceiverTypeData25receiver_count_cell_indexEj(i32 noundef %0) #1 comdat align 2 {
  %2 = alloca i32, align 4
  store i32 %0, ptr %2, align 4
  %3 = load i32, ptr %2, align 4
  %4 = mul i32 %3, 2
  %5 = add i32 2, %4
  ret i32 %5
}

; Function Attrs: mustprogress nounwind uwtable
define linkonce_odr hidden noundef i64 @_ZNK11ProfileData9intptr_atEi(ptr noundef nonnull align 8 dereferenceable(16) %0, i32 noundef %1) #1 comdat align 2 {
  %3 = alloca ptr, align 8
  %4 = alloca i32, align 4
  store ptr %0, ptr %3, align 8
  store i32 %1, ptr %4, align 4
  %5 = load ptr, ptr %3, align 8
  %6 = call noundef ptr @_ZNK11ProfileData4dataEv(ptr noundef nonnull align 8 dereferenceable(16) %5)
  %7 = load i32, ptr %4, align 4
  %8 = call noundef i64 @_ZNK10DataLayout7cell_atEi(ptr noundef nonnull align 8 dereferenceable(16) %6, i32 noundef %7)
  ret i64 %8
}

; Function Attrs: mustprogress nounwind uwtable
define linkonce_odr hidden noundef i32 @_ZN16ReceiverTypeData19receiver_cell_indexEj(i32 noundef %0) #1 comdat align 2 {
  %2 = alloca i32, align 4
  store i32 %0, ptr %2, align 4
  %3 = load i32, ptr %2, align 4
  %4 = mul i32 %3, 2
  %5 = add i32 1, %4
  ret i32 %5
}

; Function Attrs: mustprogress nounwind uwtable
define hidden void @_ZNK11ProfileData3tabEP12outputStreamb(ptr noundef nonnull align 8 dereferenceable(16) %0, ptr noundef %1, i1 noundef zeroext %2) #1 align 2 {
  %4 = alloca ptr, align 8
  %5 = alloca ptr, align 8
  %6 = alloca i8, align 1
  store ptr %0, ptr %4, align 8
  store ptr %1, ptr %5, align 8
  %7 = zext i1 %2 to i8
  store i8 %7, ptr %6, align 1
  %8 = load ptr, ptr %5, align 8
  %9 = load i8, ptr %6, align 1
  %10 = trunc i8 %9 to i1
  %11 = select i1 %10, i32 16, i32 36
  %12 = call noundef i32 @_ZN12outputStream7fill_toEi(ptr noundef nonnull align 8 dereferenceable(56) %8, i32 noundef %11)
  ret void
}

; Function Attrs: mustprogress nounwind uwtable
define linkonce_odr hidden noundef i32 @_ZNK16ReceiverTypeData14receiver_countEj(ptr noundef nonnull align 8 dereferenceable(16) %0, i32 noundef %1) #1 comdat align 2 {
  %3 = alloca ptr, align 8
  %4 = alloca i32, align 4
  store ptr %0, ptr %3, align 8
  store i32 %1, ptr %4, align 4
  %5 = load ptr, ptr %3, align 8
  %6 = load i32, ptr %4, align 4
  %7 = call noundef i32 @_ZN16ReceiverTypeData25receiver_count_cell_indexEj(i32 noundef %6)
  %8 = call noundef i32 @_ZNK11ProfileData7uint_atEi(ptr noundef nonnull align 8 dereferenceable(16) %5, i32 noundef %7)
  ret i32 %8
}

; Function Attrs: mustprogress nounwind uwtable
define linkonce_odr hidden noundef i32 @_ZNK11CounterData5countEv(ptr noundef nonnull align 8 dereferenceable(16) %0) #1 comdat align 2 {
  %2 = alloca ptr, align 8
  %3 = alloca i64, align 8
  store ptr %0, ptr %2, align 8
  %4 = load ptr, ptr %2, align 8
  %5 = call noundef i64 @_ZNK11ProfileData9intptr_atEi(ptr noundef nonnull align 8 dereferenceable(16) %4, i32 noundef 0)
  store i64 %5, ptr %3, align 8
  %6 = load i64, ptr %3, align 8
  %7 = icmp sgt i64 %6, 2147483647
  br i1 %7, label %8, label %9

8:                                                ; preds = %1
  store i64 2147483647, ptr %3, align 8
  br label %14

9:                                                ; preds = %1
  %10 = load i64, ptr %3, align 8
  %11 = icmp slt i64 %10, -2147483648
  br i1 %11, label %12, label %13

12:                                               ; preds = %9
  store i64 -2147483648, ptr %3, align 8
  br label %13

13:                                               ; preds = %12, %9
  br label %14

14:                                               ; preds = %13, %8
  %15 = load i64, ptr %3, align 8
  %16 = trunc i64 %15 to i32
  ret i32 %16
}

; Function Attrs: mustprogress nounwind uwtable
define linkonce_odr hidden noundef ptr @_ZNK16ReceiverTypeData8receiverEj(ptr noundef nonnull align 8 dereferenceable(16) %0, i32 noundef %1) #1 comdat align 2 {
  %3 = alloca ptr, align 8
  %4 = alloca i32, align 4
  %5 = alloca ptr, align 8
  store ptr %0, ptr %3, align 8
  store i32 %1, ptr %4, align 4
  %6 = load ptr, ptr %3, align 8
  %7 = load i32, ptr %4, align 4
  %8 = call noundef i32 @_ZN16ReceiverTypeData19receiver_cell_indexEj(i32 noundef %7)
  %9 = call noundef i64 @_ZNK11ProfileData9intptr_atEi(ptr noundef nonnull align 8 dereferenceable(16) %6, i32 noundef %8)
  %10 = inttoptr i64 %9 to ptr
  store ptr %10, ptr %5, align 8
  %11 = load ptr, ptr %5, align 8
  ret ptr %11
}

; Function Attrs: mustprogress nounwind uwtable
define linkonce_odr hidden noundef i32 @_ZN16ReceiverTypeData9row_limitEv() #1 comdat align 2 {
  %1 = load i64, ptr @TypeProfileWidth, align 8
  %2 = trunc i64 %1 to i32
  ret i32 %2
}

; Function Attrs: mustprogress nounwind uwtable
define hidden void @_ZNK16ReceiverTypeData22print_receiver_data_onEP12outputStream(ptr noundef nonnull align 8 dereferenceable(16) %0, ptr noundef %1) #1 align 2 {
  %3 = alloca ptr, align 8
  %4 = alloca ptr, align 8
  %5 = alloca i32, align 4
  %6 = alloca i32, align 4
  %7 = alloca i32, align 4
  store ptr %0, ptr %3, align 8
  store ptr %1, ptr %4, align 8
  %8 = load ptr, ptr %3, align 8
  store i32 0, ptr %6, align 4
  store i32 0, ptr %5, align 4
  br label %9

9:                                                ; preds = %21, %2
  %10 = load i32, ptr %5, align 4
  %11 = call noundef i32 @_ZN16ReceiverTypeData9row_limitEv()
  %12 = icmp ult i32 %10, %11
  br i1 %12, label %13, label %24

13:                                               ; preds = %9
  %14 = load i32, ptr %5, align 4
  %15 = call noundef ptr @_ZNK16ReceiverTypeData8receiverEj(ptr noundef nonnull align 8 dereferenceable(16) %8, i32 noundef %14)
  %16 = icmp ne ptr %15, null
  br i1 %16, label %17, label %20

17:                                               ; preds = %13
  %18 = load i32, ptr %6, align 4
  %19 = add nsw i32 %18, 1
  store i32 %19, ptr %6, align 4
  br label %20

20:                                               ; preds = %17, %13
  br label %21

21:                                               ; preds = %20
  %22 = load i32, ptr %5, align 4
  %23 = add i32 %22, 1
  store i32 %23, ptr %5, align 4
  br label %9, !llvm.loop !13

24:                                               ; preds = %9
  %25 = load ptr, ptr %4, align 8
  %26 = call noundef i32 @_ZNK11CounterData5countEv(ptr noundef nonnull align 8 dereferenceable(16) %8)
  %27 = load i32, ptr %6, align 4
  call void (ptr, ptr, ...) @_ZN12outputStream8print_crEPKcz(ptr noundef nonnull align 8 dereferenceable(56) %25, ptr noundef @.str.22, i32 noundef %26, i32 noundef %27)
  %28 = call noundef i32 @_ZNK11CounterData5countEv(ptr noundef nonnull align 8 dereferenceable(16) %8)
  store i32 %28, ptr %7, align 4
  store i32 0, ptr %5, align 4
  br label %29

29:                                               ; preds = %43, %24
  %30 = load i32, ptr %5, align 4
  %31 = call noundef i32 @_ZN16ReceiverTypeData9row_limitEv()
  %32 = icmp ult i32 %30, %31
  br i1 %32, label %33, label %46

33:                                               ; preds = %29
  %34 = load i32, ptr %5, align 4
  %35 = call noundef ptr @_ZNK16ReceiverTypeData8receiverEj(ptr noundef nonnull align 8 dereferenceable(16) %8, i32 noundef %34)
  %36 = icmp ne ptr %35, null
  br i1 %36, label %37, label %42

37:                                               ; preds = %33
  %38 = load i32, ptr %5, align 4
  %39 = call noundef i32 @_ZNK16ReceiverTypeData14receiver_countEj(ptr noundef nonnull align 8 dereferenceable(16) %8, i32 noundef %38)
  %40 = load i32, ptr %7, align 4
  %41 = add i32 %40, %39
  store i32 %41, ptr %7, align 4
  br label %42

42:                                               ; preds = %37, %33
  br label %43

43:                                               ; preds = %42
  %44 = load i32, ptr %5, align 4
  %45 = add i32 %44, 1
  store i32 %45, ptr %5, align 4
  br label %29, !llvm.loop !14

46:                                               ; preds = %29
  store i32 0, ptr %5, align 4
  br label %47

47:                                               ; preds = %74, %46
  %48 = load i32, ptr %5, align 4
  %49 = call noundef i32 @_ZN16ReceiverTypeData9row_limitEv()
  %50 = icmp ult i32 %48, %49
  br i1 %50, label %51, label %77

51:                                               ; preds = %47
  %52 = load i32, ptr %5, align 4
  %53 = call noundef ptr @_ZNK16ReceiverTypeData8receiverEj(ptr noundef nonnull align 8 dereferenceable(16) %8, i32 noundef %52)
  %54 = icmp ne ptr %53, null
  br i1 %54, label %55, label %73

55:                                               ; preds = %51
  %56 = load ptr, ptr %4, align 8
  call void @_ZNK11ProfileData3tabEP12outputStreamb(ptr noundef nonnull align 8 dereferenceable(16) %8, ptr noundef %56, i1 noundef zeroext false)
  %57 = load i32, ptr %5, align 4
  %58 = call noundef ptr @_ZNK16ReceiverTypeData8receiverEj(ptr noundef nonnull align 8 dereferenceable(16) %8, i32 noundef %57)
  %59 = load ptr, ptr %4, align 8
  %60 = load ptr, ptr %58, align 8
  %61 = getelementptr inbounds ptr, ptr %60, i64 11
  %62 = load ptr, ptr %61, align 8
  call void %62(ptr noundef nonnull align 8 dereferenceable(8) %58, ptr noundef %59)
  %63 = load ptr, ptr %4, align 8
  %64 = load i32, ptr %5, align 4
  %65 = call noundef i32 @_ZNK16ReceiverTypeData14receiver_countEj(ptr noundef nonnull align 8 dereferenceable(16) %8, i32 noundef %64)
  %66 = load i32, ptr %5, align 4
  %67 = call noundef i32 @_ZNK16ReceiverTypeData14receiver_countEj(ptr noundef nonnull align 8 dereferenceable(16) %8, i32 noundef %66)
  %68 = uitofp i32 %67 to float
  %69 = load i32, ptr %7, align 4
  %70 = sitofp i32 %69 to float
  %71 = fdiv float %68, %70
  %72 = fpext float %71 to double
  call void (ptr, ptr, ...) @_ZN12outputStream8print_crEPKcz(ptr noundef nonnull align 8 dereferenceable(56) %63, ptr noundef @.str.23, i32 noundef %65, double noundef %72)
  br label %73

73:                                               ; preds = %55, %51
  br label %74

74:                                               ; preds = %73
  %75 = load i32, ptr %5, align 4
  %76 = add i32 %75, 1
  store i32 %76, ptr %5, align 4
  br label %47, !llvm.loop !15

77:                                               ; preds = %47
  ret void
}