; Function Attrs: mustprogress nounwind uwtable
define hidden void @_ZNK16ReceiverTypeData22print_receiver_data_onEP12outputStream(ptr nocapture noundef nonnull readonly align 8 dereferenceable(16) %0, ptr noundef %1) local_unnamed_addr #2 align 2 {
  %3 = load i64, ptr @TypeProfileWidth, align 8
  %4 = trunc i64 %3 to i32
  %.not40 = icmp eq i32 %4, 0
  %.phi.trans.insert = getelementptr inbounds i8, ptr %0, i64 8
  %.pre = load ptr, ptr %.phi.trans.insert, align 8
  br i1 %.not40, label %._crit_edge, label %.lr.ph

.lr.ph:                                           ; preds = %2
  %5 = getelementptr inbounds i8, ptr %.pre, i64 8
  br label %6

6:                                                ; preds = %.lr.ph, %6
  %.02131 = phi i32 [ 0, %.lr.ph ], [ %spec.select, %6 ]
  %.02330 = phi i32 [ 0, %.lr.ph ], [ %13, %6 ]
  %7 = shl i32 %.02330, 1
  %8 = or disjoint i32 %7, 1
  %9 = sext i32 %8 to i64
  %10 = getelementptr inbounds [1 x i64], ptr %5, i64 0, i64 %9
  %11 = load i64, ptr %10, align 8
  %.not26 = icmp ne i64 %11, 0
  %12 = zext i1 %.not26 to i32
  %spec.select = add nuw nsw i32 %.02131, %12
  %13 = add nuw i32 %.02330, 1
  %exitcond.not = icmp eq i32 %13, %4
  br i1 %exitcond.not, label %._crit_edge, label %6, !llvm.loop !13

._crit_edge:                                      ; preds = %6, %2
  %.021.lcssa = phi i32 [ 0, %2 ], [ %spec.select, %6 ]
  %14 = getelementptr inbounds i8, ptr %0, i64 8
  %15 = getelementptr inbounds i8, ptr %.pre, i64 8
  %16 = load i64, ptr %15, align 8
  %spec.store.select.i = tail call i64 @llvm.smax.i64(i64 %16, i64 -2147483648)
  %.04.i = tail call i64 @llvm.smin.i64(i64 %spec.store.select.i, i64 2147483647)
  %.0.i = trunc nsw i64 %.04.i to i32
  tail call void (ptr, ptr, ...) @_ZN12outputStream8print_crEPKcz(ptr noundef nonnull align 8 dereferenceable(56) %1, ptr noundef nonnull @.str.22, i32 noundef %.0.i, i32 noundef %.021.lcssa) #20
  %17 = load ptr, ptr %14, align 8
  %18 = getelementptr inbounds i8, ptr %17, i64 8
  %19 = load i64, ptr %18, align 8
  %spec.store.select.i27 = tail call i64 @llvm.smax.i64(i64 %19, i64 -2147483648)
  %.04.i28 = tail call i64 @llvm.smin.i64(i64 %spec.store.select.i27, i64 2147483647)
  %.0.i29 = trunc nsw i64 %.04.i28 to i32
  %20 = load i64, ptr @TypeProfileWidth, align 8
  %21 = trunc i64 %20 to i32
  %.not41 = icmp eq i32 %21, 0
  br i1 %.not41, label %.preheader, label %.lr.ph35

.preheader:                                       ; preds = %36, %._crit_edge
  %.0.lcssa = phi i32 [ %.0.i29, %._crit_edge ], [ %.1, %36 ]
  %22 = and i64 %20, 4294967295
  %.not42 = icmp eq i64 %22, 0
  br i1 %.not42, label %._crit_edge39, label %.lr.ph38

.lr.ph38:                                         ; preds = %.preheader
  %23 = sitofp i32 %.0.lcssa to float
  br label %38

.lr.ph35:                                         ; preds = %._crit_edge, %36
  %.033 = phi i32 [ %.1, %36 ], [ %.0.i29, %._crit_edge ]
  %.12432 = phi i32 [ %37, %36 ], [ 0, %._crit_edge ]
  %24 = shl i32 %.12432, 1
  %25 = or disjoint i32 %24, 1
  %26 = sext i32 %25 to i64
  %27 = getelementptr inbounds [1 x i64], ptr %18, i64 0, i64 %26
  %28 = load i64, ptr %27, align 8
  %.not25 = icmp eq i64 %28, 0
  br i1 %.not25, label %36, label %29

29:                                               ; preds = %.lr.ph35
  %30 = add i32 %24, 2
  %31 = sext i32 %30 to i64
  %32 = getelementptr inbounds [1 x i64], ptr %18, i64 0, i64 %31
  %33 = load i64, ptr %32, align 8
  %34 = trunc i64 %33 to i32
  %35 = add i32 %.033, %34
  br label %36

36:                                               ; preds = %.lr.ph35, %29
  %.1 = phi i32 [ %35, %29 ], [ %.033, %.lr.ph35 ]
  %37 = add nuw i32 %.12432, 1
  %exitcond43.not = icmp eq i32 %37, %21
  br i1 %exitcond43.not, label %.preheader, label %.lr.ph35, !llvm.loop !14

38:                                               ; preds = %.lr.ph38, %67
  %39 = phi i64 [ %20, %.lr.ph38 ], [ %68, %67 ]
  %.237 = phi i32 [ 0, %.lr.ph38 ], [ %69, %67 ]
  %40 = shl i32 %.237, 1
  %41 = or disjoint i32 %40, 1
  %42 = load ptr, ptr %14, align 8
  %43 = getelementptr inbounds i8, ptr %42, i64 8
  %44 = sext i32 %41 to i64
  %45 = getelementptr inbounds [1 x i64], ptr %43, i64 0, i64 %44
  %46 = load i64, ptr %45, align 8
  %.not = icmp eq i64 %46, 0
  br i1 %.not, label %67, label %47

47:                                               ; preds = %38
  %48 = tail call noundef i32 @_ZN12outputStream7fill_toEi(ptr noundef nonnull align 8 dereferenceable(56) %1, i32 noundef 36) #20
  %49 = load ptr, ptr %14, align 8
  %50 = getelementptr inbounds i8, ptr %49, i64 8
  %51 = getelementptr inbounds [1 x i64], ptr %50, i64 0, i64 %44
  %52 = load i64, ptr %51, align 8
  %53 = inttoptr i64 %52 to ptr
  %54 = load ptr, ptr %53, align 8
  %55 = getelementptr inbounds i8, ptr %54, i64 88
  %56 = load ptr, ptr %55, align 8
  tail call void %56(ptr noundef nonnull align 8 dereferenceable(8) %53, ptr noundef nonnull %1) #20
  %57 = add i32 %40, 2
  %58 = load ptr, ptr %14, align 8
  %59 = getelementptr inbounds i8, ptr %58, i64 8
  %60 = sext i32 %57 to i64
  %61 = getelementptr inbounds [1 x i64], ptr %59, i64 0, i64 %60
  %62 = load i64, ptr %61, align 8
  %63 = trunc i64 %62 to i32
  %64 = uitofp i32 %63 to float
  %65 = fdiv float %64, %23
  %66 = fpext float %65 to double
  tail call void (ptr, ptr, ...) @_ZN12outputStream8print_crEPKcz(ptr noundef nonnull align 8 dereferenceable(56) %1, ptr noundef nonnull @.str.23, i32 noundef %63, double noundef %66) #20
  %.pre44 = load i64, ptr @TypeProfileWidth, align 8
  br label %67

67:                                               ; preds = %38, %47
  %68 = phi i64 [ %39, %38 ], [ %.pre44, %47 ]
  %69 = add nuw i32 %.237, 1
  %70 = trunc i64 %68 to i32
  %71 = icmp ult i32 %69, %70
  br i1 %71, label %38, label %._crit_edge39, !llvm.loop !15

._crit_edge39:                                    ; preds = %67, %.preheader
  ret void
}